
uaf:     file format elf64-x86-64


Disassembly of section .init:

0000000000400c28 <_init>:
  400c28:	48 83 ec 08          	sub    $0x8,%rsp
  400c2c:	e8 db 01 00 00       	callq  400e0c <call_gmon_start>
  400c31:	e8 6a 02 00 00       	callq  400ea0 <frame_dummy>
  400c36:	e8 15 08 00 00       	callq  401450 <__do_global_ctors_aux>
  400c3b:	48 83 c4 08          	add    $0x8,%rsp
  400c3f:	c3                   	retq   

Disassembly of section .plt:

0000000000400c40 <_ZNSsC1Ev@plt-0x10>:
  400c40:	ff 35 aa 13 20 00    	pushq  0x2013aa(%rip)        # 601ff0 <_GLOBAL_OFFSET_TABLE_+0x8>
  400c46:	ff 25 ac 13 20 00    	jmpq   *0x2013ac(%rip)        # 601ff8 <_GLOBAL_OFFSET_TABLE_+0x10>
  400c4c:	0f 1f 40 00          	nopl   0x0(%rax)

0000000000400c50 <_ZNSsC1Ev@plt>:
  400c50:	ff 25 aa 13 20 00    	jmpq   *0x2013aa(%rip)        # 602000 <_GLOBAL_OFFSET_TABLE_+0x18>
  400c56:	68 00 00 00 00       	pushq  $0x0
  400c5b:	e9 e0 ff ff ff       	jmpq   400c40 <_init+0x18>

0000000000400c60 <_ZNSolsEi@plt>:
  400c60:	ff 25 a2 13 20 00    	jmpq   *0x2013a2(%rip)        # 602008 <_GLOBAL_OFFSET_TABLE_+0x20>
  400c66:	68 01 00 00 00       	pushq  $0x1
  400c6b:	e9 d0 ff ff ff       	jmpq   400c40 <_init+0x18>

0000000000400c70 <_Znam@plt>:
  400c70:	ff 25 9a 13 20 00    	jmpq   *0x20139a(%rip)        # 602010 <_GLOBAL_OFFSET_TABLE_+0x28>
  400c76:	68 02 00 00 00       	pushq  $0x2
  400c7b:	e9 c0 ff ff ff       	jmpq   400c40 <_init+0x18>

0000000000400c80 <_ZdlPv@plt>:
  400c80:	ff 25 92 13 20 00    	jmpq   *0x201392(%rip)        # 602018 <_GLOBAL_OFFSET_TABLE_+0x30>
  400c86:	68 03 00 00 00       	pushq  $0x3
  400c8b:	e9 b0 ff ff ff       	jmpq   400c40 <_init+0x18>

0000000000400c90 <_ZNSt8ios_base4InitC1Ev@plt>:
  400c90:	ff 25 8a 13 20 00    	jmpq   *0x20138a(%rip)        # 602020 <_GLOBAL_OFFSET_TABLE_+0x38>
  400c96:	68 04 00 00 00       	pushq  $0x4
  400c9b:	e9 a0 ff ff ff       	jmpq   400c40 <_init+0x18>

0000000000400ca0 <read@plt>:
  400ca0:	ff 25 82 13 20 00    	jmpq   *0x201382(%rip)        # 602028 <_GLOBAL_OFFSET_TABLE_+0x40>
  400ca6:	68 05 00 00 00       	pushq  $0x5
  400cab:	e9 90 ff ff ff       	jmpq   400c40 <_init+0x18>

0000000000400cb0 <__libc_start_main@plt>:
  400cb0:	ff 25 7a 13 20 00    	jmpq   *0x20137a(%rip)        # 602030 <_GLOBAL_OFFSET_TABLE_+0x48>
  400cb6:	68 06 00 00 00       	pushq  $0x6
  400cbb:	e9 80 ff ff ff       	jmpq   400c40 <_init+0x18>

0000000000400cc0 <system@plt>:
  400cc0:	ff 25 72 13 20 00    	jmpq   *0x201372(%rip)        # 602038 <_GLOBAL_OFFSET_TABLE_+0x50>
  400cc6:	68 07 00 00 00       	pushq  $0x7
  400ccb:	e9 70 ff ff ff       	jmpq   400c40 <_init+0x18>

0000000000400cd0 <__cxa_atexit@plt>:
  400cd0:	ff 25 6a 13 20 00    	jmpq   *0x20136a(%rip)        # 602040 <_GLOBAL_OFFSET_TABLE_+0x58>
  400cd6:	68 08 00 00 00       	pushq  $0x8
  400cdb:	e9 60 ff ff ff       	jmpq   400c40 <_init+0x18>

0000000000400ce0 <_ZNSt8ios_base4InitD1Ev@plt>:
  400ce0:	ff 25 62 13 20 00    	jmpq   *0x201362(%rip)        # 602048 <_GLOBAL_OFFSET_TABLE_+0x60>
  400ce6:	68 09 00 00 00       	pushq  $0x9
  400ceb:	e9 50 ff ff ff       	jmpq   400c40 <_init+0x18>

0000000000400cf0 <_ZStlsISt11char_traitsIcEERSt13basic_ostreamIcT_ES5_PKc@plt>:
  400cf0:	ff 25 5a 13 20 00    	jmpq   *0x20135a(%rip)        # 602050 <_GLOBAL_OFFSET_TABLE_+0x68>
  400cf6:	68 0a 00 00 00       	pushq  $0xa
  400cfb:	e9 40 ff ff ff       	jmpq   400c40 <_init+0x18>

0000000000400d00 <_ZNSsD1Ev@plt>:
  400d00:	ff 25 52 13 20 00    	jmpq   *0x201352(%rip)        # 602058 <_GLOBAL_OFFSET_TABLE_+0x70>
  400d06:	68 0b 00 00 00       	pushq  $0xb
  400d0b:	e9 30 ff ff ff       	jmpq   400c40 <_init+0x18>

0000000000400d10 <_ZNSsC1EPKcRKSaIcE@plt>:
  400d10:	ff 25 4a 13 20 00    	jmpq   *0x20134a(%rip)        # 602060 <_GLOBAL_OFFSET_TABLE_+0x78>
  400d16:	68 0c 00 00 00       	pushq  $0xc
  400d1b:	e9 20 ff ff ff       	jmpq   400c40 <_init+0x18>

0000000000400d20 <atoi@plt>:
  400d20:	ff 25 42 13 20 00    	jmpq   *0x201342(%rip)        # 602068 <_GLOBAL_OFFSET_TABLE_+0x80>
  400d26:	68 0d 00 00 00       	pushq  $0xd
  400d2b:	e9 10 ff ff ff       	jmpq   400c40 <_init+0x18>

0000000000400d30 <_ZStlsIcSt11char_traitsIcESaIcEERSt13basic_ostreamIT_T0_ES7_RKSbIS4_S5_T1_E@plt>:
  400d30:	ff 25 3a 13 20 00    	jmpq   *0x20133a(%rip)        # 602070 <_GLOBAL_OFFSET_TABLE_+0x88>
  400d36:	68 0e 00 00 00       	pushq  $0xe
  400d3b:	e9 00 ff ff ff       	jmpq   400c40 <_init+0x18>

0000000000400d40 <_ZNSaIcED1Ev@plt>:
  400d40:	ff 25 32 13 20 00    	jmpq   *0x201332(%rip)        # 602078 <_GLOBAL_OFFSET_TABLE_+0x90>
  400d46:	68 0f 00 00 00       	pushq  $0xf
  400d4b:	e9 f0 fe ff ff       	jmpq   400c40 <_init+0x18>

0000000000400d50 <_ZNSolsEPFRSoS_E@plt>:
  400d50:	ff 25 2a 13 20 00    	jmpq   *0x20132a(%rip)        # 602080 <_GLOBAL_OFFSET_TABLE_+0x98>
  400d56:	68 10 00 00 00       	pushq  $0x10
  400d5b:	e9 e0 fe ff ff       	jmpq   400c40 <_init+0x18>

0000000000400d60 <_ZSt4endlIcSt11char_traitsIcEERSt13basic_ostreamIT_T0_ES6_@plt>:
  400d60:	ff 25 22 13 20 00    	jmpq   *0x201322(%rip)        # 602088 <_GLOBAL_OFFSET_TABLE_+0xa0>
  400d66:	68 11 00 00 00       	pushq  $0x11
  400d6b:	e9 d0 fe ff ff       	jmpq   400c40 <_init+0x18>

0000000000400d70 <_ZNSaIcEC1Ev@plt>:
  400d70:	ff 25 1a 13 20 00    	jmpq   *0x20131a(%rip)        # 602090 <_GLOBAL_OFFSET_TABLE_+0xa8>
  400d76:	68 12 00 00 00       	pushq  $0x12
  400d7b:	e9 c0 fe ff ff       	jmpq   400c40 <_init+0x18>

0000000000400d80 <__gxx_personality_v0@plt>:
  400d80:	ff 25 12 13 20 00    	jmpq   *0x201312(%rip)        # 602098 <_GLOBAL_OFFSET_TABLE_+0xb0>
  400d86:	68 13 00 00 00       	pushq  $0x13
  400d8b:	e9 b0 fe ff ff       	jmpq   400c40 <_init+0x18>

0000000000400d90 <_Znwm@plt>:
  400d90:	ff 25 0a 13 20 00    	jmpq   *0x20130a(%rip)        # 6020a0 <_GLOBAL_OFFSET_TABLE_+0xb8>
  400d96:	68 14 00 00 00       	pushq  $0x14
  400d9b:	e9 a0 fe ff ff       	jmpq   400c40 <_init+0x18>

0000000000400da0 <_Unwind_Resume@plt>:
  400da0:	ff 25 02 13 20 00    	jmpq   *0x201302(%rip)        # 6020a8 <_GLOBAL_OFFSET_TABLE_+0xc0>
  400da6:	68 15 00 00 00       	pushq  $0x15
  400dab:	e9 90 fe ff ff       	jmpq   400c40 <_init+0x18>

0000000000400db0 <_ZNSsaSERKSs@plt>:
  400db0:	ff 25 fa 12 20 00    	jmpq   *0x2012fa(%rip)        # 6020b0 <_GLOBAL_OFFSET_TABLE_+0xc8>
  400db6:	68 16 00 00 00       	pushq  $0x16
  400dbb:	e9 80 fe ff ff       	jmpq   400c40 <_init+0x18>

0000000000400dc0 <open@plt>:
  400dc0:	ff 25 f2 12 20 00    	jmpq   *0x2012f2(%rip)        # 6020b8 <_GLOBAL_OFFSET_TABLE_+0xd0>
  400dc6:	68 17 00 00 00       	pushq  $0x17
  400dcb:	e9 70 fe ff ff       	jmpq   400c40 <_init+0x18>

0000000000400dd0 <_ZNSirsERj@plt>:
  400dd0:	ff 25 ea 12 20 00    	jmpq   *0x2012ea(%rip)        # 6020c0 <_GLOBAL_OFFSET_TABLE_+0xd8>
  400dd6:	68 18 00 00 00       	pushq  $0x18
  400ddb:	e9 60 fe ff ff       	jmpq   400c40 <_init+0x18>

Disassembly of section .text:

0000000000400de0 <_start>:
  400de0:	31 ed                	xor    %ebp,%ebp
  400de2:	49 89 d1             	mov    %rdx,%r9
  400de5:	5e                   	pop    %rsi
  400de6:	48 89 e2             	mov    %rsp,%rdx
  400de9:	48 83 e4 f0          	and    $0xfffffffffffffff0,%rsp
  400ded:	50                   	push   %rax
  400dee:	54                   	push   %rsp
  400def:	49 c7 c0 40 14 40 00 	mov    $0x401440,%r8
  400df6:	48 c7 c1 b0 13 40 00 	mov    $0x4013b0,%rcx
  400dfd:	48 c7 c7 c4 0e 40 00 	mov    $0x400ec4,%rdi
  400e04:	e8 a7 fe ff ff       	callq  400cb0 <__libc_start_main@plt>
  400e09:	f4                   	hlt    
  400e0a:	90                   	nop
  400e0b:	90                   	nop

0000000000400e0c <call_gmon_start>:
  400e0c:	48 83 ec 08          	sub    $0x8,%rsp
  400e10:	48 8b 05 c9 11 20 00 	mov    0x2011c9(%rip),%rax        # 601fe0 <_DYNAMIC+0x1d0>
  400e17:	48 85 c0             	test   %rax,%rax
  400e1a:	74 02                	je     400e1e <call_gmon_start+0x12>
  400e1c:	ff d0                	callq  *%rax
  400e1e:	48 83 c4 08          	add    $0x8,%rsp
  400e22:	c3                   	retq   
  400e23:	90                   	nop
  400e24:	90                   	nop
  400e25:	90                   	nop
  400e26:	90                   	nop
  400e27:	90                   	nop
  400e28:	90                   	nop
  400e29:	90                   	nop
  400e2a:	90                   	nop
  400e2b:	90                   	nop
  400e2c:	90                   	nop
  400e2d:	90                   	nop
  400e2e:	90                   	nop
  400e2f:	90                   	nop

0000000000400e30 <__do_global_dtors_aux>:
  400e30:	55                   	push   %rbp
  400e31:	48 89 e5             	mov    %rsp,%rbp
  400e34:	53                   	push   %rbx
  400e35:	48 83 ec 08          	sub    $0x8,%rsp
  400e39:	80 3d 98 15 20 00 00 	cmpb   $0x0,0x201598(%rip)        # 6023d8 <completed.6531>
  400e40:	75 4b                	jne    400e8d <__do_global_dtors_aux+0x5d>
  400e42:	bb 00 1e 60 00       	mov    $0x601e00,%ebx
  400e47:	48 8b 05 92 15 20 00 	mov    0x201592(%rip),%rax        # 6023e0 <dtor_idx.6533>
  400e4e:	48 81 eb f8 1d 60 00 	sub    $0x601df8,%rbx
  400e55:	48 c1 fb 03          	sar    $0x3,%rbx
  400e59:	48 83 eb 01          	sub    $0x1,%rbx
  400e5d:	48 39 d8             	cmp    %rbx,%rax
  400e60:	73 24                	jae    400e86 <__do_global_dtors_aux+0x56>
  400e62:	66 0f 1f 44 00 00    	nopw   0x0(%rax,%rax,1)
  400e68:	48 83 c0 01          	add    $0x1,%rax
  400e6c:	48 89 05 6d 15 20 00 	mov    %rax,0x20156d(%rip)        # 6023e0 <dtor_idx.6533>
  400e73:	ff 14 c5 f8 1d 60 00 	callq  *0x601df8(,%rax,8)
  400e7a:	48 8b 05 5f 15 20 00 	mov    0x20155f(%rip),%rax        # 6023e0 <dtor_idx.6533>
  400e81:	48 39 d8             	cmp    %rbx,%rax
  400e84:	72 e2                	jb     400e68 <__do_global_dtors_aux+0x38>
  400e86:	c6 05 4b 15 20 00 01 	movb   $0x1,0x20154b(%rip)        # 6023d8 <completed.6531>
  400e8d:	48 83 c4 08          	add    $0x8,%rsp
  400e91:	5b                   	pop    %rbx
  400e92:	5d                   	pop    %rbp
  400e93:	c3                   	retq   
  400e94:	66 66 66 2e 0f 1f 84 	data16 data16 nopw %cs:0x0(%rax,%rax,1)
  400e9b:	00 00 00 00 00 

0000000000400ea0 <frame_dummy>:
  400ea0:	48 83 3d 60 0f 20 00 	cmpq   $0x0,0x200f60(%rip)        # 601e08 <__JCR_END__>
  400ea7:	00 
  400ea8:	55                   	push   %rbp
  400ea9:	48 89 e5             	mov    %rsp,%rbp
  400eac:	74 12                	je     400ec0 <frame_dummy+0x20>
  400eae:	b8 00 00 00 00       	mov    $0x0,%eax
  400eb3:	48 85 c0             	test   %rax,%rax
  400eb6:	74 08                	je     400ec0 <frame_dummy+0x20>
  400eb8:	5d                   	pop    %rbp
  400eb9:	bf 08 1e 60 00       	mov    $0x601e08,%edi
  400ebe:	ff e0                	jmpq   *%rax
  400ec0:	5d                   	pop    %rbp
  400ec1:	c3                   	retq   
  400ec2:	90                   	nop
  400ec3:	90                   	nop

0000000000400ec4 <main>:
  400ec4:	55                   	push   %rbp
  400ec5:	48 89 e5             	mov    %rsp,%rbp
  400ec8:	41 54                	push   %r12
  400eca:	53                   	push   %rbx
  400ecb:	48 83 ec 50          	sub    $0x50,%rsp # alloc main memory
  400ecf:	89 7d ac             	mov    %edi,-0x54(%rbp)
  400ed2:	48 89 75 a0          	mov    %rsi,-0x60(%rbp)
  400ed6:	48 8d 45 ee          	lea    -0x12(%rbp),%rax
  400eda:	48 89 c7             	mov    %rax,%rdi
  400edd:	e8 8e fe ff ff       	callq  400d70 <_ZNSaIcEC1Ev@plt>
  400ee2:	48 8d 55 ee          	lea    -0x12(%rbp),%rdx
  400ee6:	48 8d 45 b0          	lea    -0x50(%rbp),%rax 
   #(rbp-0x50) = m variable
  400eea:	be f0 14 40 00       	mov    $0x4014f0,%esi
  # esi = "Jack" addr
  400eef:	48 89 c7             	mov    %rax,%rdi
  400ef2:	e8 19 fe ff ff       	callq  400d10 <_ZNSsC1EPKcRKSaIcE@plt>
  400ef7:	4c 8d 65 b0          	lea    -0x50(%rbp),%r12
  400efb:	bf 18 00 00 00       	mov    $0x18,%edi
  400f00:	e8 8b fe ff ff       	callq  400d90 <_Znwm@plt>
  400f05:	48 89 c3             	mov    %rax,%rbx
  400f08:	ba 19 00 00 00       	mov    $0x19,%edx
  # edx = 25 (age of Jack)
  400f0d:	4c 89 e6             	mov    %r12,%rsi
  400f10:	48 89 df             	mov    %rbx,%rdi
  400f13:	e8 4c 03 00 00       	callq  401264 <_ZN3ManC1ESsi>
  # man object create
  400f18:	48 89 5d c8          	mov    %rbx,-0x38(%rbp)
  400f1c:	48 8d 45 b0          	lea    -0x50(%rbp),%rax
  400f20:	48 89 c7             	mov    %rax,%rdi
  400f23:	e8 d8 fd ff ff       	callq  400d00 <_ZNSsD1Ev@plt>
  400f28:	48 8d 45 ee          	lea    -0x12(%rbp),%rax
  400f2c:	48 89 c7             	mov    %rax,%rdi
  400f2f:	e8 0c fe ff ff       	callq  400d40 <_ZNSaIcED1Ev@plt>
  400f34:	48 8d 45 ef          	lea    -0x11(%rbp),%rax
  400f38:	48 89 c7             	mov    %rax,%rdi
  400f3b:	e8 30 fe ff ff       	callq  400d70 <_ZNSaIcEC1Ev@plt>
  400f40:	48 8d 55 ef          	lea    -0x11(%rbp),%rdx
  400f44:	48 8d 45 c0          	lea    -0x40(%rbp),%rax
  400f48:	be f5 14 40 00       	mov    $0x4014f5,%esi
  # esi = Jill
  400f4d:	48 89 c7             	mov    %rax,%rdi
  400f50:	e8 bb fd ff ff       	callq  400d10 <_ZNSsC1EPKcRKSaIcE@plt>
  400f55:	4c 8d 65 c0          	lea    -0x40(%rbp),%r12
  # rbp-0x40 = w variable addr
  400f59:	bf 18 00 00 00       	mov    $0x18,%edi
  400f5e:	e8 2d fe ff ff       	callq  400d90 <_Znwm@plt>
  400f63:	48 89 c3             	mov    %rax,%rbx
  400f66:	ba 15 00 00 00       	mov    $0x15,%edx
  # edx = Jill's age = 21(0x15)
  400f6b:	4c 89 e6             	mov    %r12,%rsi
  400f6e:	48 89 df             	mov    %rbx,%rdi
  400f71:	e8 92 03 00 00       	callq  401308 <_ZN5WomanC1ESsi>
  # woman object create
  400f76:	48 89 5d d0          	mov    %rbx,-0x30(%rbp)
  400f7a:	48 8d 45 c0          	lea    -0x40(%rbp),%rax
  400f7e:	48 89 c7             	mov    %rax,%rdi
  400f81:	e8 7a fd ff ff       	callq  400d00 <_ZNSsD1Ev@plt>
  400f86:	48 8d 45 ef          	lea    -0x11(%rbp),%rax
  400f8a:	48 89 c7             	mov    %rax,%rdi
  400f8d:	e8 ae fd ff ff       	callq  400d40 <_ZNSaIcED1Ev@plt>
  400f92:	be fa 14 40 00       	mov    $0x4014fa,%esi
  # esi = "1. use\n2. after\n3. free\n"
  400f97:	bf 60 22 60 00       	mov    $0x602260,%edi
  # edi = cout addr
  400f9c:	e8 4f fd ff ff       	callq  400cf0 <_ZStlsISt11char_traitsIcEERSt13basic_ostreamIcT_ES5_PKc@plt>
  400fa1:	48 8d 45 e8          	lea    -0x18(%rbp),%rax
  # rax = op variable's address
  400fa5:	48 89 c6             	mov    %rax,%rsi
  400fa8:	bf e0 20 60 00       	mov    $0x6020e0,%edi
  # edi = cin addr
  400fad:	e8 1e fe ff ff       	callq  400dd0 <_ZNSirsERj@plt>
  400fb2:	8b 45 e8             	mov    -0x18(%rbp),%eax
  400fb5:	83 f8 02             	cmp    $0x2,%eax
  400fb8:	74 46                	je     401000 <main+0x13c>
  # case 2

  400fba:	83 f8 03             	cmp    $0x3,%eax
  400fbd:	0f 84 b3 00 00 00    	je     401076 <main+0x1b2>
  # case 3

  400fc3:	83 f8 01             	cmp    $0x1,%eax
  400fc6:	74 05                	je     400fcd <main+0x109>
  # case 1

  400fc8:	e9 dc 00 00 00       	jmpq   4010a9 <main+0x1e5>
  # while loop end

  # case 1 jump destination

  # m->introduce()
  400fcd:	48 8b 45 c8          	mov    -0x38(%rbp),%rax
  400fd1:	48 8b 00             	mov    (%rax),%rax
  # rax = Man object address
  400fd4:	48 83 c0 08          	add    $0x8,%rax
  400fd8:	48 8b 10             	mov    (%rax),%rdx
  400fdb:	48 8b 45 c8          	mov    -0x38(%rbp),%rax
  400fdf:	48 89 c7             	mov    %rax,%rdi
  400fe2:	ff d2                	callq  *%rdx
  # introduce func -> (object_addr + 8)


  400fe4:	48 8b 45 d0          	mov    -0x30(%rbp),%rax
  400fe8:	48 8b 00             	mov    (%rax),%rax
  400feb:	48 83 c0 08          	add    $0x8,%rax
  400fef:	48 8b 10             	mov    (%rax),%rdx
  400ff2:	48 8b 45 d0          	mov    -0x30(%rbp),%rax
  400ff6:	48 89 c7             	mov    %rax,%rdi
  400ff9:	ff d2                	callq  *%rdx
  400ffb:	e9 a9 00 00 00       	jmpq   4010a9 <main+0x1e5>

  # case 2 handles
  401000:	48 8b 45 a0          	mov    -0x60(%rbp),%rax
  401004:	48 83 c0 08          	add    $0x8,%rax
  401008:	48 8b 00             	mov    (%rax),%rax
  40100b:	48 89 c7             	mov    %rax,%rdi
  40100e:	e8 0d fd ff ff       	callq  400d20 <atoi@plt>
  401013:	48 98                	cltq   
  401015:	48 89 45 d8          	mov    %rax,-0x28(%rbp)
  401019:	48 8b 45 d8          	mov    -0x28(%rbp),%rax
  40101d:	48 89 c7             	mov    %rax,%rdi

  # new operator
  401020:	e8 4b fc ff ff       	callq  400c70 <_Znam@plt>
  401025:	48 89 45 e0          	mov    %rax,-0x20(%rbp)
  401029:	48 8b 45 a0          	mov    -0x60(%rbp),%rax
  40102d:	48 83 c0 10          	add    $0x10,%rax
  401031:	48 8b 00             	mov    (%rax),%rax
  401034:	be 00 00 00 00       	mov    $0x0,%esi
  401039:	48 89 c7             	mov    %rax,%rdi
  40103c:	b8 00 00 00 00       	mov    $0x0,%eax
  401041:	e8 7a fd ff ff       	callq  400dc0 <open@plt>
  401046:	48 8b 55 d8          	mov    -0x28(%rbp),%rdx
  40104a:	48 8b 4d e0          	mov    -0x20(%rbp),%rcx
  40104e:	48 89 ce             	mov    %rcx,%rsi
  401051:	89 c7                	mov    %eax,%edi
  401053:	e8 48 fc ff ff       	callq  400ca0 <read@plt>
  401058:	be 13 15 40 00       	mov    $0x401513,%esi
  40105d:	bf 60 22 60 00       	mov    $0x602260,%edi
  401062:	e8 89 fc ff ff       	callq  400cf0 <_ZStlsISt11char_traitsIcEERSt13basic_ostreamIcT_ES5_PKc@plt>
  401067:	be 60 0d 40 00       	mov    $0x400d60,%esi
  40106c:	48 89 c7             	mov    %rax,%rdi
  40106f:	e8 dc fc ff ff       	callq  400d50 <_ZNSolsEPFRSoS_E@plt>
  401074:	eb 33                	jmp    4010a9 <main+0x1e5>

  401076:	48 8b 5d c8          	mov    -0x38(%rbp),%rbx
  # m variable check
  40107a:	48 85 db             	test   %rbx,%rbx
  40107d:	74 10                	je     40108f <main+0x1cb>
  # jmp if rbx = 0
  40107f:	48 89 df             	mov    %rbx,%rdi

  401082:	e8 b3 01 00 00       	callq  40123a <_ZN5HumanD1Ev>
  401087:	48 89 df             	mov    %rbx,%rdi
  40108a:	e8 f1 fb ff ff       	callq  400c80 <_ZdlPv@plt>
  40108f:	48 8b 5d d0          	mov    -0x30(%rbp),%rbx
  # w variable check
  401093:	48 85 db             	test   %rbx,%rbx
  401096:	74 10                	je     4010a8 <main+0x1e4>
  401098:	48 89 df             	mov    %rbx,%rdi
  40109b:	e8 9a 01 00 00       	callq  40123a <_ZN5HumanD1Ev>
  4010a0:	48 89 df             	mov    %rbx,%rdi
  4010a3:	e8 d8 fb ff ff       	callq  400c80 <_ZdlPv@plt>

  4010a8:	90                   	nop
  4010a9:	e9 e4 fe ff ff       	jmpq   400f92 <main+0xce>
  4010ae:	49 89 c4             	mov    %rax,%r12
  4010b1:	48 89 df             	mov    %rbx,%rdi
  4010b4:	e8 c7 fb ff ff       	callq  400c80 <_ZdlPv@plt>
  4010b9:	4c 89 e3             	mov    %r12,%rbx
  4010bc:	eb 03                	jmp    4010c1 <main+0x1fd>
  4010be:	48 89 c3             	mov    %rax,%rbx
  4010c1:	48 8d 45 b0          	lea    -0x50(%rbp),%rax
  4010c5:	48 89 c7             	mov    %rax,%rdi
  4010c8:	e8 33 fc ff ff       	callq  400d00 <_ZNSsD1Ev@plt>
  4010cd:	eb 03                	jmp    4010d2 <main+0x20e>
  4010cf:	48 89 c3             	mov    %rax,%rbx
  4010d2:	48 8d 45 ee          	lea    -0x12(%rbp),%rax
  4010d6:	48 89 c7             	mov    %rax,%rdi
  4010d9:	e8 62 fc ff ff       	callq  400d40 <_ZNSaIcED1Ev@plt>
  4010de:	48 89 d8             	mov    %rbx,%rax
  4010e1:	48 89 c7             	mov    %rax,%rdi
  4010e4:	e8 b7 fc ff ff       	callq  400da0 <_Unwind_Resume@plt>
  4010e9:	49 89 c4             	mov    %rax,%r12
  4010ec:	48 89 df             	mov    %rbx,%rdi
  4010ef:	e8 8c fb ff ff       	callq  400c80 <_ZdlPv@plt>
  4010f4:	4c 89 e3             	mov    %r12,%rbx
  4010f7:	eb 03                	jmp    4010fc <main+0x238>
  4010f9:	48 89 c3             	mov    %rax,%rbx
  4010fc:	48 8d 45 c0          	lea    -0x40(%rbp),%rax
  401100:	48 89 c7             	mov    %rax,%rdi
  401103:	e8 f8 fb ff ff       	callq  400d00 <_ZNSsD1Ev@plt>
  401108:	eb 03                	jmp    40110d <main+0x249>
  40110a:	48 89 c3             	mov    %rax,%rbx
  40110d:	48 8d 45 ef          	lea    -0x11(%rbp),%rax
  401111:	48 89 c7             	mov    %rax,%rdi
  401114:	e8 27 fc ff ff       	callq  400d40 <_ZNSaIcED1Ev@plt>
  401119:	48 89 d8             	mov    %rbx,%rax
  40111c:	48 89 c7             	mov    %rax,%rdi
  40111f:	e8 7c fc ff ff       	callq  400da0 <_Unwind_Resume@plt>

0000000000401124 <_Z41__static_initialization_and_destruction_0ii>:
  401124:	55                   	push   %rbp
  401125:	48 89 e5             	mov    %rsp,%rbp
  401128:	48 83 ec 10          	sub    $0x10,%rsp
  40112c:	89 7d fc             	mov    %edi,-0x4(%rbp)
  40112f:	89 75 f8             	mov    %esi,-0x8(%rbp)
  401132:	83 7d fc 01          	cmpl   $0x1,-0x4(%rbp)
  401136:	75 2a                	jne    401162 <_Z41__static_initialization_and_destruction_0ii+0x3e>
  401138:	81 7d f8 ff ff 00 00 	cmpl   $0xffff,-0x8(%rbp)
  40113f:	75 21                	jne    401162 <_Z41__static_initialization_and_destruction_0ii+0x3e>
  401141:	bf e8 23 60 00       	mov    $0x6023e8,%edi
  401146:	e8 45 fb ff ff       	callq  400c90 <_ZNSt8ios_base4InitC1Ev@plt>
  40114b:	b8 e0 0c 40 00       	mov    $0x400ce0,%eax
  401150:	ba d0 20 60 00       	mov    $0x6020d0,%edx
  401155:	be e8 23 60 00       	mov    $0x6023e8,%esi
  40115a:	48 89 c7             	mov    %rax,%rdi
  40115d:	e8 6e fb ff ff       	callq  400cd0 <__cxa_atexit@plt>
  401162:	c9                   	leaveq 
  401163:	c3                   	retq   

0000000000401164 <_GLOBAL__sub_I_main>:
  401164:	55                   	push   %rbp
  401165:	48 89 e5             	mov    %rsp,%rbp
  401168:	be ff ff 00 00       	mov    $0xffff,%esi
  40116d:	bf 01 00 00 00       	mov    $0x1,%edi
  401172:	e8 ad ff ff ff       	callq  401124 <_Z41__static_initialization_and_destruction_0ii>
  401177:	5d                   	pop    %rbp
  401178:	c3                   	retq   
  401179:	90                   	nop

000000000040117a <_ZN5Human10give_shellEv>:
# give shell function!
  40117a:	55                   	push   %rbp
  40117b:	48 89 e5             	mov    %rsp,%rbp
  40117e:	48 83 ec 10          	sub    $0x10,%rsp
  401182:	48 89 7d f8          	mov    %rdi,-0x8(%rbp)
  401186:	bf a8 14 40 00       	mov    $0x4014a8,%edi
  # edi = "/bin/sh"
  40118b:	e8 30 fb ff ff       	callq  400cc0 <system@plt>
  401190:	c9                   	leaveq 
  401191:	c3                   	retq   

0000000000401192 <_ZN5Human9introduceEv>:
# rdi -> argument, object pointer itself.
  401192:	55                   	push   %rbp
  401193:	48 89 e5             	mov    %rsp,%rbp
  401196:	53                   	push   %rbx
  401197:	48 83 ec 18          	sub    $0x18,%rsp
  40119b:	48 89 7d e8          	mov    %rdi,-0x18(%rbp)
# object pointer it self stores on rbp - 0x18

  40119f:	48 8b 45 e8          	mov    -0x18(%rbp),%rax
  4011a3:	48 8d 58 10          	lea    0x10(%rax),%rbx
# rbx => object data pointer
# name is positioned on object + 0x10

  4011a7:	be b0 14 40 00       	mov    $0x4014b0,%esi
  4011ac:	bf 60 22 60 00       	mov    $0x602260,%edi
  4011b1:	e8 3a fb ff ff       	callq  400cf0 <_ZStlsISt11char_traitsIcEERSt13basic_ostreamIcT_ES5_PKc@plt>
  # cout string literal

  4011b6:	48 89 de             	mov    %rbx,%rsi
  4011b9:	48 89 c7             	mov    %rax,%rdi
  4011bc:	e8 6f fb ff ff       	callq  400d30 <_ZStlsIcSt11char_traitsIcESaIcEERSt13basic_ostreamIT_T0_ES7_RKSbIS4_S5_T1_E@plt>
  # cout string

  4011c1:	be 60 0d 40 00       	mov    $0x400d60,%esi
  4011c6:	48 89 c7             	mov    %rax,%rdi
  4011c9:	e8 82 fb ff ff       	callq  400d50 <_ZNSolsEPFRSoS_E@plt>
  4011ce:	48 8b 45 e8          	mov    -0x18(%rbp),%rax
  4011d2:	8b 58 08             	mov    0x8(%rax),%ebx
  # age is positioned on object + 0x8
  4011d5:	be bc 14 40 00       	mov    $0x4014bc,%esi
  4011da:	bf 60 22 60 00       	mov    $0x602260,%edi
  4011df:	e8 0c fb ff ff       	callq  400cf0 <_ZStlsISt11char_traitsIcEERSt13basic_ostreamIcT_ES5_PKc@plt>
  4011e4:	89 de                	mov    %ebx,%esi
  4011e6:	48 89 c7             	mov    %rax,%rdi
  4011e9:	e8 72 fa ff ff       	callq  400c60 <_ZNSolsEi@plt>
  # cout int

  4011ee:	be c2 14 40 00       	mov    $0x4014c2,%esi
  4011f3:	48 89 c7             	mov    %rax,%rdi
  4011f6:	e8 f5 fa ff ff       	callq  400cf0 <_ZStlsISt11char_traitsIcEERSt13basic_ostreamIcT_ES5_PKc@plt>
  4011fb:	be 60 0d 40 00       	mov    $0x400d60,%esi
  401200:	48 89 c7             	mov    %rax,%rdi
  401203:	e8 48 fb ff ff       	callq  400d50 <_ZNSolsEPFRSoS_E@plt>
  401208:	48 83 c4 18          	add    $0x18,%rsp
  40120c:	5b                   	pop    %rbx
  40120d:	5d                   	pop    %rbp
  40120e:	c3                   	retq   
  40120f:	90                   	nop

0000000000401210 <_ZN5HumanC1Ev>:
  401210:	55                   	push   %rbp
  401211:	48 89 e5             	mov    %rsp,%rbp
  401214:	48 83 ec 10          	sub    $0x10,%rsp
  401218:	48 89 7d f8          	mov    %rdi,-0x8(%rbp)
  40121c:	48 8b 45 f8          	mov    -0x8(%rbp),%rax
  401220:	48 c7 00 90 15 40 00 	movq   $0x401590,(%rax)
  401227:	48 8b 45 f8          	mov    -0x8(%rbp),%rax
  40122b:	48 83 c0 10          	add    $0x10,%rax
  40122f:	48 89 c7             	mov    %rax,%rdi
  401232:	e8 19 fa ff ff       	callq  400c50 <_ZNSsC1Ev@plt>
  401237:	c9                   	leaveq 
  401238:	c3                   	retq   
  401239:	90                   	nop

000000000040123a <_ZN5HumanD1Ev>:
  # Human::~Human()
  40123a:	55                   	push   %rbp
  40123b:	48 89 e5             	mov    %rsp,%rbp
  40123e:	48 83 ec 10          	sub    $0x10,%rsp
  401242:	48 89 7d f8          	mov    %rdi,-0x8(%rbp)
  401246:	48 8b 45 f8          	mov    -0x8(%rbp),%rax
  40124a:	48 c7 00 90 15 40 00 	movq   $0x401590,(%rax)
  401251:	48 8b 45 f8          	mov    -0x8(%rbp),%rax
  401255:	48 83 c0 10          	add    $0x10,%rax
  401259:	48 89 c7             	mov    %rax,%rdi
  40125c:	e8 9f fa ff ff       	callq  400d00 <_ZNSsD1Ev@plt>
  401261:	c9                   	leaveq 
  401262:	c3                   	retq   
  401263:	90                   	nop

0000000000401264 <_ZN3ManC1ESsi>:
# Man::Man(string, int);
  401264:	55                   	push   %rbp
  401265:	48 89 e5             	mov    %rsp,%rbp
  401268:	53                   	push   %rbx
  401269:	48 83 ec 28          	sub    $0x28,%rsp
  40126d:	48 89 7d e8          	mov    %rdi,-0x18(%rbp)
  401271:	48 89 75 e0          	mov    %rsi,-0x20(%rbp)
  401275:	89 55 dc             	mov    %edx,-0x24(%rbp)
  401278:	48 8b 45 e8          	mov    -0x18(%rbp),%rax
  40127c:	48 89 c7             	mov    %rax,%rdi
  40127f:	e8 8c ff ff ff       	callq  401210 <_ZN5HumanC1Ev>
  # Call Human::Human()
  401284:	48 8b 45 e8          	mov    -0x18(%rbp),%rax
  401288:	48 c7 00 70 15 40 00 	movq   $0x401570,(%rax)
  # (rax) = vtable of Man
  40128f:	48 8b 45 e8          	mov    -0x18(%rbp),%rax
  401293:	48 8d 50 10          	lea    0x10(%rax),%rdx
  401297:	48 8b 45 e0          	mov    -0x20(%rbp),%rax
  40129b:	48 89 c6             	mov    %rax,%rsi
  40129e:	48 89 d7             	mov    %rdx,%rdi
  4012a1:	e8 0a fb ff ff       	callq  400db0 <_ZNSsaSERKSs@plt>
  # string assignment
  4012a6:	48 8b 45 e8          	mov    -0x18(%rbp),%rax
  4012aa:	8b 55 dc             	mov    -0x24(%rbp),%edx
  4012ad:	89 50 08             	mov    %edx,0x8(%rax)
  4012b0:	48 83 c4 28          	add    $0x28,%rsp
  4012b4:	5b                   	pop    %rbx
  4012b5:	5d                   	pop    %rbp
  4012b6:	c3                   	retq   
  4012b7:	48 89 c3             	mov    %rax,%rbx
  4012ba:	48 8b 45 e8          	mov    -0x18(%rbp),%rax
  4012be:	48 89 c7             	mov    %rax,%rdi
  4012c1:	e8 74 ff ff ff       	callq  40123a <_ZN5HumanD1Ev>
  4012c6:	48 89 d8             	mov    %rbx,%rax
  4012c9:	48 89 c7             	mov    %rax,%rdi
  4012cc:	e8 cf fa ff ff       	callq  400da0 <_Unwind_Resume@plt>
  4012d1:	90                   	nop

00000000004012d2 <_ZN3Man9introduceEv>:
# Man::introduce()
  4012d2:	55                   	push   %rbp
  4012d3:	48 89 e5             	mov    %rsp,%rbp
  4012d6:	48 83 ec 10          	sub    $0x10,%rsp
  4012da:	48 89 7d f8          	mov    %rdi,-0x8(%rbp)
  # rdi=> m variable itself. stores on rbp-0x8
  4012de:	48 8b 45 f8          	mov    -0x8(%rbp),%rax
  4012e2:	48 89 c7             	mov    %rax,%rdi
  4012e5:	e8 a8 fe ff ff       	callq  401192 <_ZN5Human9introduceEv>
  4012ea:	be cd 14 40 00       	mov    $0x4014cd,%esi
  4012ef:	bf 60 22 60 00       	mov    $0x602260,%edi
  4012f4:	e8 f7 f9 ff ff       	callq  400cf0 <_ZStlsISt11char_traitsIcEERSt13basic_ostreamIcT_ES5_PKc@plt>
  4012f9:	be 60 0d 40 00       	mov    $0x400d60,%esi
  4012fe:	48 89 c7             	mov    %rax,%rdi
  401301:	e8 4a fa ff ff       	callq  400d50 <_ZNSolsEPFRSoS_E@plt>
  401306:	c9                   	leaveq 
  401307:	c3                   	retq   

0000000000401308 <_ZN5WomanC1ESsi>:
  401308:	55                   	push   %rbp
  401309:	48 89 e5             	mov    %rsp,%rbp
  40130c:	53                   	push   %rbx
  40130d:	48 83 ec 28          	sub    $0x28,%rsp
  401311:	48 89 7d e8          	mov    %rdi,-0x18(%rbp)
  401315:	48 89 75 e0          	mov    %rsi,-0x20(%rbp)
  401319:	89 55 dc             	mov    %edx,-0x24(%rbp)
  40131c:	48 8b 45 e8          	mov    -0x18(%rbp),%rax
  401320:	48 89 c7             	mov    %rax,%rdi
  401323:	e8 e8 fe ff ff       	callq  401210 <_ZN5HumanC1Ev>
  401328:	48 8b 45 e8          	mov    -0x18(%rbp),%rax
  40132c:	48 c7 00 50 15 40 00 	movq   $0x401550,(%rax)
  401333:	48 8b 45 e8          	mov    -0x18(%rbp),%rax
  401337:	48 8d 50 10          	lea    0x10(%rax),%rdx
  40133b:	48 8b 45 e0          	mov    -0x20(%rbp),%rax
  40133f:	48 89 c6             	mov    %rax,%rsi
  401342:	48 89 d7             	mov    %rdx,%rdi
  401345:	e8 66 fa ff ff       	callq  400db0 <_ZNSsaSERKSs@plt>
  40134a:	48 8b 45 e8          	mov    -0x18(%rbp),%rax
  40134e:	8b 55 dc             	mov    -0x24(%rbp),%edx
  401351:	89 50 08             	mov    %edx,0x8(%rax)
  401354:	48 83 c4 28          	add    $0x28,%rsp
  401358:	5b                   	pop    %rbx
  401359:	5d                   	pop    %rbp
  40135a:	c3                   	retq   
  40135b:	48 89 c3             	mov    %rax,%rbx
  40135e:	48 8b 45 e8          	mov    -0x18(%rbp),%rax
  401362:	48 89 c7             	mov    %rax,%rdi
  401365:	e8 d0 fe ff ff       	callq  40123a <_ZN5HumanD1Ev>
  40136a:	48 89 d8             	mov    %rbx,%rax
  40136d:	48 89 c7             	mov    %rax,%rdi
  401370:	e8 2b fa ff ff       	callq  400da0 <_Unwind_Resume@plt>
  401375:	90                   	nop

0000000000401376 <_ZN5Woman9introduceEv>:
  401376:	55                   	push   %rbp
  401377:	48 89 e5             	mov    %rsp,%rbp
  40137a:	48 83 ec 10          	sub    $0x10,%rsp
  40137e:	48 89 7d f8          	mov    %rdi,-0x8(%rbp)
  401382:	48 8b 45 f8          	mov    -0x8(%rbp),%rax
  401386:	48 89 c7             	mov    %rax,%rdi
  401389:	e8 04 fe ff ff       	callq  401192 <_ZN5Human9introduceEv>
  40138e:	be de 14 40 00       	mov    $0x4014de,%esi
  401393:	bf 60 22 60 00       	mov    $0x602260,%edi
  401398:	e8 53 f9 ff ff       	callq  400cf0 <_ZStlsISt11char_traitsIcEERSt13basic_ostreamIcT_ES5_PKc@plt>
  40139d:	be 60 0d 40 00       	mov    $0x400d60,%esi
  4013a2:	48 89 c7             	mov    %rax,%rdi
  4013a5:	e8 a6 f9 ff ff       	callq  400d50 <_ZNSolsEPFRSoS_E@plt>
  4013aa:	c9                   	leaveq 
  4013ab:	c3                   	retq   
  4013ac:	90                   	nop
  4013ad:	90                   	nop
  4013ae:	90                   	nop
  4013af:	90                   	nop

00000000004013b0 <__libc_csu_init>:
  4013b0:	48 89 6c 24 d8       	mov    %rbp,-0x28(%rsp)
  4013b5:	4c 89 64 24 e0       	mov    %r12,-0x20(%rsp)
  4013ba:	48 8d 2d 27 0a 20 00 	lea    0x200a27(%rip),%rbp        # 601de8 <__init_array_end>
  4013c1:	4c 8d 25 18 0a 20 00 	lea    0x200a18(%rip),%r12        # 601de0 <__init_array_start>
  4013c8:	4c 89 6c 24 e8       	mov    %r13,-0x18(%rsp)
  4013cd:	4c 89 74 24 f0       	mov    %r14,-0x10(%rsp)
  4013d2:	4c 89 7c 24 f8       	mov    %r15,-0x8(%rsp)
  4013d7:	48 89 5c 24 d0       	mov    %rbx,-0x30(%rsp)
  4013dc:	48 83 ec 38          	sub    $0x38,%rsp
  4013e0:	4c 29 e5             	sub    %r12,%rbp
  4013e3:	41 89 fd             	mov    %edi,%r13d
  4013e6:	49 89 f6             	mov    %rsi,%r14
  4013e9:	48 c1 fd 03          	sar    $0x3,%rbp
  4013ed:	49 89 d7             	mov    %rdx,%r15
  4013f0:	e8 33 f8 ff ff       	callq  400c28 <_init>
  4013f5:	48 85 ed             	test   %rbp,%rbp
  4013f8:	74 1c                	je     401416 <__libc_csu_init+0x66>
  4013fa:	31 db                	xor    %ebx,%ebx
  4013fc:	0f 1f 40 00          	nopl   0x0(%rax)
  401400:	4c 89 fa             	mov    %r15,%rdx
  401403:	4c 89 f6             	mov    %r14,%rsi
  401406:	44 89 ef             	mov    %r13d,%edi
  401409:	41 ff 14 dc          	callq  *(%r12,%rbx,8)
  40140d:	48 83 c3 01          	add    $0x1,%rbx
  401411:	48 39 eb             	cmp    %rbp,%rbx
  401414:	75 ea                	jne    401400 <__libc_csu_init+0x50>
  401416:	48 8b 5c 24 08       	mov    0x8(%rsp),%rbx
  40141b:	48 8b 6c 24 10       	mov    0x10(%rsp),%rbp
  401420:	4c 8b 64 24 18       	mov    0x18(%rsp),%r12
  401425:	4c 8b 6c 24 20       	mov    0x20(%rsp),%r13
  40142a:	4c 8b 74 24 28       	mov    0x28(%rsp),%r14
  40142f:	4c 8b 7c 24 30       	mov    0x30(%rsp),%r15
  401434:	48 83 c4 38          	add    $0x38,%rsp
  401438:	c3                   	retq   
  401439:	0f 1f 80 00 00 00 00 	nopl   0x0(%rax)

0000000000401440 <__libc_csu_fini>:
  401440:	f3 c3                	repz retq 
  401442:	90                   	nop
  401443:	90                   	nop
  401444:	90                   	nop
  401445:	90                   	nop
  401446:	90                   	nop
  401447:	90                   	nop
  401448:	90                   	nop
  401449:	90                   	nop
  40144a:	90                   	nop
  40144b:	90                   	nop
  40144c:	90                   	nop
  40144d:	90                   	nop
  40144e:	90                   	nop
  40144f:	90                   	nop

0000000000401450 <__do_global_ctors_aux>:
  401450:	55                   	push   %rbp
  401451:	48 89 e5             	mov    %rsp,%rbp
  401454:	53                   	push   %rbx
  401455:	48 83 ec 08          	sub    $0x8,%rsp
  401459:	48 8b 05 88 09 20 00 	mov    0x200988(%rip),%rax        # 601de8 <__init_array_end>
  401460:	48 83 f8 ff          	cmp    $0xffffffffffffffff,%rax
  401464:	74 19                	je     40147f <__do_global_ctors_aux+0x2f>
  401466:	bb e8 1d 60 00       	mov    $0x601de8,%ebx
  40146b:	0f 1f 44 00 00       	nopl   0x0(%rax,%rax,1)
  401470:	48 83 eb 08          	sub    $0x8,%rbx
  401474:	ff d0                	callq  *%rax
  401476:	48 8b 03             	mov    (%rbx),%rax
  401479:	48 83 f8 ff          	cmp    $0xffffffffffffffff,%rax
  40147d:	75 f1                	jne    401470 <__do_global_ctors_aux+0x20>
  40147f:	48 83 c4 08          	add    $0x8,%rsp
  401483:	5b                   	pop    %rbx
  401484:	5d                   	pop    %rbp
  401485:	c3                   	retq   
  401486:	90                   	nop
  401487:	90                   	nop

Disassembly of section .fini:

0000000000401488 <_fini>:
  401488:	48 83 ec 08          	sub    $0x8,%rsp
  40148c:	e8 9f f9 ff ff       	callq  400e30 <__do_global_dtors_aux>
  401491:	48 83 c4 08          	add    $0x8,%rsp
  401495:	c3                   	retq   
