
main:     file format elf32-i386


Disassembly of section .init:

080482f0 <_init>:
 80482f0:	53                   	push   %ebx
 80482f1:	83 ec 08             	sub    $0x8,%esp
 80482f4:	e8 a7 00 00 00       	call   80483a0 <__x86.get_pc_thunk.bx>
 80482f9:	81 c3 07 1d 00 00    	add    $0x1d07,%ebx
 80482ff:	8b 83 fc ff ff ff    	mov    -0x4(%ebx),%eax
 8048305:	85 c0                	test   %eax,%eax
 8048307:	74 05                	je     804830e <_init+0x1e>
 8048309:	e8 52 00 00 00       	call   8048360 <memset@plt+0x10>
 804830e:	83 c4 08             	add    $0x8,%esp
 8048311:	5b                   	pop    %ebx
 8048312:	c3                   	ret    

Disassembly of section .plt:

08048320 <__stack_chk_fail@plt-0x10>:
 8048320:	ff 35 04 a0 04 08    	pushl  0x804a004
 8048326:	ff 25 08 a0 04 08    	jmp    *0x804a008
 804832c:	00 00                	add    %al,(%eax)
	...

08048330 <__stack_chk_fail@plt>:
 8048330:	ff 25 0c a0 04 08    	jmp    *0x804a00c
 8048336:	68 00 00 00 00       	push   $0x0
 804833b:	e9 e0 ff ff ff       	jmp    8048320 <_init+0x30>

08048340 <__libc_start_main@plt>:
 8048340:	ff 25 10 a0 04 08    	jmp    *0x804a010
 8048346:	68 08 00 00 00       	push   $0x8
 804834b:	e9 d0 ff ff ff       	jmp    8048320 <_init+0x30>

08048350 <memset@plt>:
 8048350:	ff 25 14 a0 04 08    	jmp    *0x804a014
 8048356:	68 10 00 00 00       	push   $0x10
 804835b:	e9 c0 ff ff ff       	jmp    8048320 <_init+0x30>

Disassembly of section .plt.got:

08048360 <.plt.got>:
 8048360:	ff 25 fc 9f 04 08    	jmp    *0x8049ffc
 8048366:	66 90                	xchg   %ax,%ax

Disassembly of section .text:

08048370 <_start>:
 8048370:	31 ed                	xor    %ebp,%ebp
 8048372:	5e                   	pop    %esi
 8048373:	89 e1                	mov    %esp,%ecx
 8048375:	83 e4 f0             	and    $0xfffffff0,%esp
 8048378:	50                   	push   %eax
 8048379:	54                   	push   %esp
 804837a:	52                   	push   %edx
 804837b:	68 30 86 04 08       	push   $0x8048630
 8048380:	68 d0 85 04 08       	push   $0x80485d0
 8048385:	51                   	push   %ecx
 8048386:	56                   	push   %esi
 8048387:	68 73 84 04 08       	push   $0x8048473
 804838c:	e8 af ff ff ff       	call   8048340 <__libc_start_main@plt>
 8048391:	f4                   	hlt    
 8048392:	66 90                	xchg   %ax,%ax
 8048394:	66 90                	xchg   %ax,%ax
 8048396:	66 90                	xchg   %ax,%ax
 8048398:	66 90                	xchg   %ax,%ax
 804839a:	66 90                	xchg   %ax,%ax
 804839c:	66 90                	xchg   %ax,%ax
 804839e:	66 90                	xchg   %ax,%ax

080483a0 <__x86.get_pc_thunk.bx>:
 80483a0:	8b 1c 24             	mov    (%esp),%ebx
 80483a3:	c3                   	ret    
 80483a4:	66 90                	xchg   %ax,%ax
 80483a6:	66 90                	xchg   %ax,%ax
 80483a8:	66 90                	xchg   %ax,%ax
 80483aa:	66 90                	xchg   %ax,%ax
 80483ac:	66 90                	xchg   %ax,%ax
 80483ae:	66 90                	xchg   %ax,%ax

080483b0 <deregister_tm_clones>:
 80483b0:	b8 23 a0 04 08       	mov    $0x804a023,%eax
 80483b5:	2d 20 a0 04 08       	sub    $0x804a020,%eax
 80483ba:	83 f8 06             	cmp    $0x6,%eax
 80483bd:	76 1a                	jbe    80483d9 <deregister_tm_clones+0x29>
 80483bf:	b8 00 00 00 00       	mov    $0x0,%eax
 80483c4:	85 c0                	test   %eax,%eax
 80483c6:	74 11                	je     80483d9 <deregister_tm_clones+0x29>
 80483c8:	55                   	push   %ebp
 80483c9:	89 e5                	mov    %esp,%ebp
 80483cb:	83 ec 14             	sub    $0x14,%esp
 80483ce:	68 20 a0 04 08       	push   $0x804a020
 80483d3:	ff d0                	call   *%eax
 80483d5:	83 c4 10             	add    $0x10,%esp
 80483d8:	c9                   	leave  
 80483d9:	f3 c3                	repz ret 
 80483db:	90                   	nop
 80483dc:	8d 74 26 00          	lea    0x0(%esi,%eiz,1),%esi

080483e0 <register_tm_clones>:
 80483e0:	b8 20 a0 04 08       	mov    $0x804a020,%eax
 80483e5:	2d 20 a0 04 08       	sub    $0x804a020,%eax
 80483ea:	c1 f8 02             	sar    $0x2,%eax
 80483ed:	89 c2                	mov    %eax,%edx
 80483ef:	c1 ea 1f             	shr    $0x1f,%edx
 80483f2:	01 d0                	add    %edx,%eax
 80483f4:	d1 f8                	sar    %eax
 80483f6:	74 1b                	je     8048413 <register_tm_clones+0x33>
 80483f8:	ba 00 00 00 00       	mov    $0x0,%edx
 80483fd:	85 d2                	test   %edx,%edx
 80483ff:	74 12                	je     8048413 <register_tm_clones+0x33>
 8048401:	55                   	push   %ebp
 8048402:	89 e5                	mov    %esp,%ebp
 8048404:	83 ec 10             	sub    $0x10,%esp
 8048407:	50                   	push   %eax
 8048408:	68 20 a0 04 08       	push   $0x804a020
 804840d:	ff d2                	call   *%edx
 804840f:	83 c4 10             	add    $0x10,%esp
 8048412:	c9                   	leave  
 8048413:	f3 c3                	repz ret 
 8048415:	8d 74 26 00          	lea    0x0(%esi,%eiz,1),%esi
 8048419:	8d bc 27 00 00 00 00 	lea    0x0(%edi,%eiz,1),%edi

08048420 <__do_global_dtors_aux>:
 8048420:	80 3d 20 a0 04 08 00 	cmpb   $0x0,0x804a020
 8048427:	75 13                	jne    804843c <__do_global_dtors_aux+0x1c>
 8048429:	55                   	push   %ebp
 804842a:	89 e5                	mov    %esp,%ebp
 804842c:	83 ec 08             	sub    $0x8,%esp
 804842f:	e8 7c ff ff ff       	call   80483b0 <deregister_tm_clones>
 8048434:	c6 05 20 a0 04 08 01 	movb   $0x1,0x804a020
 804843b:	c9                   	leave  
 804843c:	f3 c3                	repz ret 
 804843e:	66 90                	xchg   %ax,%ax

08048440 <frame_dummy>:
 8048440:	b8 10 9f 04 08       	mov    $0x8049f10,%eax
 8048445:	8b 10                	mov    (%eax),%edx
 8048447:	85 d2                	test   %edx,%edx
 8048449:	75 05                	jne    8048450 <frame_dummy+0x10>
 804844b:	eb 93                	jmp    80483e0 <register_tm_clones>
 804844d:	8d 76 00             	lea    0x0(%esi),%esi
 8048450:	ba 00 00 00 00       	mov    $0x0,%edx
 8048455:	85 d2                	test   %edx,%edx
 8048457:	74 f2                	je     804844b <frame_dummy+0xb>
 8048459:	55                   	push   %ebp
 804845a:	89 e5                	mov    %esp,%ebp
 804845c:	83 ec 14             	sub    $0x14,%esp
 804845f:	50                   	push   %eax
 8048460:	ff d2                	call   *%edx
 8048462:	83 c4 10             	add    $0x10,%esp
 8048465:	c9                   	leave  
 8048466:	e9 75 ff ff ff       	jmp    80483e0 <register_tm_clones>

0804846b <eax_setter>:
 804846b:	55                   	push   %ebp
 804846c:	89 e5                	mov    %esp,%ebp
 804846e:	8b 45 08             	mov    0x8(%ebp),%eax
 8048471:	5d                   	pop    %ebp
 8048472:	c3                   	ret    

08048473 <main>:
 8048473:	8d 4c 24 04          	lea    0x4(%esp),%ecx
 8048477:	83 e4 f0             	and    $0xfffffff0,%esp
 804847a:	ff 71 fc             	pushl  -0x4(%ecx)
 804847d:	55                   	push   %ebp
 804847e:	89 e5                	mov    %esp,%ebp
 8048480:	51                   	push   %ecx
 8048481:	81 ec 14 04 00 00    	sub    $0x414,%esp
 8048487:	65 a1 14 00 00 00    	mov    %gs:0x14,%eax
 804848d:	89 45 f4             	mov    %eax,-0xc(%ebp)
 8048490:	31 c0                	xor    %eax,%eax
 8048492:	83 ec 04             	sub    $0x4,%esp
 8048495:	68 00 04 00 00       	push   $0x400
 804849a:	6a 00                	push   $0x0
 804849c:	8d 85 f4 fb ff ff    	lea    -0x40c(%ebp),%eax
 80484a2:	50                   	push   %eax
 80484a3:	e8 a8 fe ff ff       	call   8048350 <memset@plt>
 80484a8:	83 c4 10             	add    $0x10,%esp
 80484ab:	83 ec 0c             	sub    $0xc,%esp
 80484ae:	8d 85 f4 fb ff ff    	lea    -0x40c(%ebp),%eax
 80484b4:	50                   	push   %eax
 80484b5:	e8 b1 ff ff ff       	call   804846b <eax_setter>
 80484ba:	83 c4 10             	add    $0x10,%esp
 80484bd:	89 85 f0 fb ff ff    	mov    %eax,-0x410(%ebp)
 80484c3:	8b 85 f0 fb ff ff    	mov    -0x410(%ebp),%eax
 80484c9:	50                   	push   %eax
 80484ca:	80 00 6a             	addb   $0x6a,(%eax)
 80484cd:	00 6d 00             	add    %ch,0x0(%ebp)
 80484d0:	40                   	inc    %eax
 80484d1:	00 6d 00             	add    %ch,0x0(%ebp)
 80484d4:	80 00 68             	addb   $0x68,(%eax)
 80484d7:	00 6d 00             	add    %ch,0x0(%ebp)
 80484da:	40                   	inc    %eax
 80484db:	00 6d 00             	add    %ch,0x0(%ebp)
 80484de:	80 00 68             	addb   $0x68,(%eax)
 80484e1:	00 6d 00             	add    %ch,0x0(%ebp)
 80484e4:	40                   	inc    %eax
 80484e5:	00 6d 00             	add    %ch,0x0(%ebp)
 80484e8:	80 00 2f             	addb   $0x2f,(%eax)
 80484eb:	00 6d 00             	add    %ch,0x0(%ebp)
 80484ee:	40                   	inc    %eax
 80484ef:	00 6d 00             	add    %ch,0x0(%ebp)
 80484f2:	80 00 2f             	addb   $0x2f,(%eax)
 80484f5:	00 6d 00             	add    %ch,0x0(%ebp)
 80484f8:	40                   	inc    %eax
 80484f9:	00 6d 00             	add    %ch,0x0(%ebp)
 80484fc:	80 00 2f             	addb   $0x2f,(%eax)
 80484ff:	00 6d 00             	add    %ch,0x0(%ebp)
 8048502:	40                   	inc    %eax
 8048503:	00 6d 00             	add    %ch,0x0(%ebp)
 8048506:	80 00 73             	addb   $0x73,(%eax)
 8048509:	00 6d 00             	add    %ch,0x0(%ebp)
 804850c:	40                   	inc    %eax
 804850d:	00 6d 00             	add    %ch,0x0(%ebp)
 8048510:	80 00 68             	addb   $0x68,(%eax)
 8048513:	00 6d 00             	add    %ch,0x0(%ebp)
 8048516:	40                   	inc    %eax
 8048517:	00 6d 00             	add    %ch,0x0(%ebp)
 804851a:	80 00 2f             	addb   $0x2f,(%eax)
 804851d:	00 6d 00             	add    %ch,0x0(%ebp)
 8048520:	40                   	inc    %eax
 8048521:	00 6d 00             	add    %ch,0x0(%ebp)
 8048524:	80 00 62             	addb   $0x62,(%eax)
 8048527:	00 6d 00             	add    %ch,0x0(%ebp)
 804852a:	40                   	inc    %eax
 804852b:	00 6d 00             	add    %ch,0x0(%ebp)
 804852e:	80 00 69             	addb   $0x69,(%eax)
 8048531:	00 6d 00             	add    %ch,0x0(%ebp)
 8048534:	40                   	inc    %eax
 8048535:	00 6d 00             	add    %ch,0x0(%ebp)
 8048538:	80 00 6e             	addb   $0x6e,(%eax)
 804853b:	00 6d 00             	add    %ch,0x0(%ebp)
 804853e:	40                   	inc    %eax
 804853f:	00 6d 00             	add    %ch,0x0(%ebp)
 8048542:	80 00 6a             	addb   $0x6a,(%eax)
 8048545:	00 6d 00             	add    %ch,0x0(%ebp)
 8048548:	40                   	inc    %eax
 8048549:	00 6d 00             	add    %ch,0x0(%ebp)
 804854c:	80 00 0b             	addb   $0xb,(%eax)
 804854f:	00 6d 00             	add    %ch,0x0(%ebp)
 8048552:	40                   	inc    %eax
 8048553:	00 6d 00             	add    %ch,0x0(%ebp)
 8048556:	80 00 58             	addb   $0x58,(%eax)
 8048559:	00 6d 00             	add    %ch,0x0(%ebp)
 804855c:	40                   	inc    %eax
 804855d:	00 6d 00             	add    %ch,0x0(%ebp)
 8048560:	80 00 89             	addb   $0x89,(%eax)
 8048563:	00 6d 00             	add    %ch,0x0(%ebp)
 8048566:	40                   	inc    %eax
 8048567:	00 6d 00             	add    %ch,0x0(%ebp)
 804856a:	80 00 e3             	addb   $0xe3,(%eax)
 804856d:	00 6d 00             	add    %ch,0x0(%ebp)
 8048570:	40                   	inc    %eax
 8048571:	00 6d 00             	add    %ch,0x0(%ebp)
 8048574:	80 00 31             	addb   $0x31,(%eax)
 8048577:	00 6d 00             	add    %ch,0x0(%ebp)
 804857a:	40                   	inc    %eax
 804857b:	00 6d 00             	add    %ch,0x0(%ebp)
 804857e:	80 00 c9             	addb   $0xc9,(%eax)
 8048581:	00 6d 00             	add    %ch,0x0(%ebp)
 8048584:	40                   	inc    %eax
 8048585:	00 6d 00             	add    %ch,0x0(%ebp)
 8048588:	80 00 99             	addb   $0x99,(%eax)
 804858b:	00 6d 00             	add    %ch,0x0(%ebp)
 804858e:	40                   	inc    %eax
 804858f:	00 6d 00             	add    %ch,0x0(%ebp)
 8048592:	80 00 cd             	addb   $0xcd,(%eax)
 8048595:	00 6d 00             	add    %ch,0x0(%ebp)
 8048598:	40                   	inc    %eax
 8048599:	00 6d 00             	add    %ch,0x0(%ebp)
 804859c:	80 00 80             	addb   $0x80,(%eax)
 804859f:	00 6d 00             	add    %ch,0x0(%ebp)
 80485a2:	40                   	inc    %eax
 80485a3:	00 6d 00             	add    %ch,0x0(%ebp)
 80485a6:	c3                   	ret    
 80485a7:	b8 00 00 00 00       	mov    $0x0,%eax
 80485ac:	8b 55 f4             	mov    -0xc(%ebp),%edx
 80485af:	65 33 15 14 00 00 00 	xor    %gs:0x14,%edx
 80485b6:	74 05                	je     80485bd <main+0x14a>
 80485b8:	e8 73 fd ff ff       	call   8048330 <__stack_chk_fail@plt>
 80485bd:	8b 4d fc             	mov    -0x4(%ebp),%ecx
 80485c0:	c9                   	leave  
 80485c1:	8d 61 fc             	lea    -0x4(%ecx),%esp
 80485c4:	c3                   	ret    
 80485c5:	66 90                	xchg   %ax,%ax
 80485c7:	66 90                	xchg   %ax,%ax
 80485c9:	66 90                	xchg   %ax,%ax
 80485cb:	66 90                	xchg   %ax,%ax
 80485cd:	66 90                	xchg   %ax,%ax
 80485cf:	90                   	nop

080485d0 <__libc_csu_init>:
 80485d0:	55                   	push   %ebp
 80485d1:	57                   	push   %edi
 80485d2:	56                   	push   %esi
 80485d3:	53                   	push   %ebx
 80485d4:	e8 c7 fd ff ff       	call   80483a0 <__x86.get_pc_thunk.bx>
 80485d9:	81 c3 27 1a 00 00    	add    $0x1a27,%ebx
 80485df:	83 ec 0c             	sub    $0xc,%esp
 80485e2:	8b 6c 24 20          	mov    0x20(%esp),%ebp
 80485e6:	8d b3 0c ff ff ff    	lea    -0xf4(%ebx),%esi
 80485ec:	e8 ff fc ff ff       	call   80482f0 <_init>
 80485f1:	8d 83 08 ff ff ff    	lea    -0xf8(%ebx),%eax
 80485f7:	29 c6                	sub    %eax,%esi
 80485f9:	c1 fe 02             	sar    $0x2,%esi
 80485fc:	85 f6                	test   %esi,%esi
 80485fe:	74 25                	je     8048625 <__libc_csu_init+0x55>
 8048600:	31 ff                	xor    %edi,%edi
 8048602:	8d b6 00 00 00 00    	lea    0x0(%esi),%esi
 8048608:	83 ec 04             	sub    $0x4,%esp
 804860b:	ff 74 24 2c          	pushl  0x2c(%esp)
 804860f:	ff 74 24 2c          	pushl  0x2c(%esp)
 8048613:	55                   	push   %ebp
 8048614:	ff 94 bb 08 ff ff ff 	call   *-0xf8(%ebx,%edi,4)
 804861b:	83 c7 01             	add    $0x1,%edi
 804861e:	83 c4 10             	add    $0x10,%esp
 8048621:	39 f7                	cmp    %esi,%edi
 8048623:	75 e3                	jne    8048608 <__libc_csu_init+0x38>
 8048625:	83 c4 0c             	add    $0xc,%esp
 8048628:	5b                   	pop    %ebx
 8048629:	5e                   	pop    %esi
 804862a:	5f                   	pop    %edi
 804862b:	5d                   	pop    %ebp
 804862c:	c3                   	ret    
 804862d:	8d 76 00             	lea    0x0(%esi),%esi

08048630 <__libc_csu_fini>:
 8048630:	f3 c3                	repz ret 

Disassembly of section .fini:

08048634 <_fini>:
 8048634:	53                   	push   %ebx
 8048635:	83 ec 08             	sub    $0x8,%esp
 8048638:	e8 63 fd ff ff       	call   80483a0 <__x86.get_pc_thunk.bx>
 804863d:	81 c3 c3 19 00 00    	add    $0x19c3,%ebx
 8048643:	83 c4 08             	add    $0x8,%esp
 8048646:	5b                   	pop    %ebx
 8048647:	c3                   	ret    
